Certificate:
    Data:
        Version: 3 (0x2)
        Serial Number: 8122065131915888231 (0x70b75f34766ec667)
    Signature Algorithm: sha256WithRSAEncryption
        Issuer: C=US, O=CloudFlare, Inc., OU=Testing Key Server Certificate Authority, L=San Francisco, ST=California
        Validity
            Not Before: Sep  9 20:25:57 2014 GMT
            Not After : Sep  9 20:30:57 2015 GMT
        Subject: C=US, O=Cloudflare, Inc., OU=Testing Keyless RSA Server, L=San Francisco, ST=California
        Subject Public Key Info:
            Public Key Algorithm: rsaEncryption
                Public-Key: (2048 bit)
                Modulus:
                    00:e2:52:0b:39:ef:c0:0c:6e:03:e6:37:5f:d3:63:
                    74:a4:70:a3:7d:74:15:1d:51:33:69:1d:24:2a:d6:
                    1a:3a:e0:0e:18:2b:1f:cc:92:b9:fa:82:07:df:a5:
                    22:2c:e1:97:f9:b0:66:47:08:84:2c:96:1e:80:bb:
                    a9:f2:8f:2a:e0:dc:f0:f1:d7:c0:22:bf:71:6b:3e:
                    e0:95:27:37:92:60:50:08:0d:85:60:b8:22:47:43:
                    51:c0:85:44:8d:da:de:80:6e:41:75:25:40:3c:ce:
                    6b:f2:f9:35:66:10:0d:16:3c:a9:63:2d:e5:03:07:
                    bd:0a:90:7f:c2:9c:f6:23:a4:45:60:00:e3:8c:79:
                    44:74:7e:c5:c2:cc:a6:94:25:a7:de:4b:ab:a1:d8:
                    e7:b0:04:07:92:f0:a5:3c:9a:60:24:ec:cd:58:53:
                    b7:02:64:a8:83:ec:97:15:bc:c3:8b:f3:9c:5e:63:
                    5b:b9:cb:ba:9b:4f:39:52:66:61:c3:c7:b4:3a:be:
                    ab:67:9a:31:e7:30:97:50:3f:95:e1:57:db:a8:99:
                    92:fc:90:77:4d:2e:d5:14:9a:1a:0e:26:92:b7:a0:
                    1a:d6:ee:a6:d5:45:50:1d:08:4c:c2:87:2c:ae:c6:
                    a4:3b:c8:01:48:3f:25:a5:2e:c3:4f:ab:80:1a:73:
                    b6:b9
                Exponent: 65537 (0x10001)
        X509v3 extensions:
            X509v3 Key Usage: critical
                Digital Signature, Key Encipherment
            X509v3 Extended Key Usage: 
                TLS Web Server Authentication, TLS Web Client Authentication
            X509v3 Basic Constraints: critical
                CA:FALSE
            X509v3 Subject Key Identifier: 
                97:D2:6B:E7:88:87:96:CA:D9:C6:99:43:48:2D:94:DA:2C:18:F8:E7
            X509v3 Authority Key Identifier: 
                keyid:A9:78:26:19:F1:09:EF:5E:6D:AC:F8:C0:51:91:3C:52:D9:23:48:5A

            X509v3 Subject Alternative Name: 
                DNS:rsa-server
    Signature Algorithm: sha256WithRSAEncryption
         68:05:8a:e1:81:8f:79:49:53:ac:b0:d0:9b:36:39:32:13:12:
         86:e3:41:bf:11:59:1b:75:a2:5b:fe:7e:06:8f:ac:57:2e:ca:
         86:dd:c9:c7:35:1c:68:65:90:4e:6b:da:c8:a0:50:f0:c7:22:
         3a:c4:b9:2a:8e:fc:03:7b:60:62:98:bb:4c:5d:85:d2:27:fd:
         e2:e3:26:01:9e:31:39:82:ad:a8:f6:36:98:24:26:99:42:87:
         01:e3:2d:4d:e5:54:f0:56:69:12:8f:80:b4:54:15:15:01:10:
         3f:df:67:73:52:2e:e6:50:a7:75:4a:a1:2c:af:61:e6:33:e6:
         12:6e:0b:6a:7f:35:2c:0a:66:9f:70:e3:a3:5e:e4:23:78:d8:
         08:a9:19:de:76:d8:62:66:fa:13:7f:d9:a5:c5:5d:85:4d:b7:
         15:f3:da:35:2a:05:5d:6d:de:2a:de:9f:59:7f:1c:26:81:89:
         13:d6:c5:e9:c7:42:19:fc:6d:6c:a8:16:0f:f7:78:5b:ac:95:
         25:46:17:86:75:5f:e9:56:91:8c:65:7b:a3:b5:a8:88:cc:b6:
         90:5e:64:6d:70:8c:5c:c4:b3:6f:3a:ac:77:21:28:6d:be:23:
         50:da:aa:3e:19:cb:fd:36:d7:4b:7e:bd:24:ce:8d:0e:ee:78:
         db:b0:a4:b8
-----BEGIN CERTIFICATE-----
MIIEGTCCAwOgAwIBAgIIcLdfNHZuxmcwCwYJKoZIhvcNAQELMIGIMQswCQYDVQQG
EwJVUzEZMBcGA1UEChMQQ2xvdWRGbGFyZSwgSW5jLjExMC8GA1UECxMoVGVzdGlu
ZyBLZXkgU2VydmVyIENlcnRpZmljYXRlIEF1dGhvcml0eTEWMBQGA1UEBxMNU2Fu
IEZyYW5jaXNjbzETMBEGA1UECBMKQ2FsaWZvcm5pYTAeFw0xNDA5MDkyMDI1NTda
Fw0xNTA5MDkyMDMwNTdaMHoxCzAJBgNVBAYTAlVTMRkwFwYDVQQKExBDbG91ZGZs
YXJlLCBJbmMuMSMwIQYDVQQLExpUZXN0aW5nIEtleWxlc3MgUlNBIFNlcnZlcjEW
MBQGA1UEBxMNU2FuIEZyYW5jaXNjbzETMBEGA1UECBMKQ2FsaWZvcm5pYTCCASIw
DQYJKoZIhvcNAQEBBQADggEPADCCAQoCggEBAOJSCznvwAxuA+Y3X9NjdKRwo310
FR1RM2kdJCrWGjrgDhgrH8ySufqCB9+lIizhl/mwZkcIhCyWHoC7qfKPKuDc8PHX
wCK/cWs+4JUnN5JgUAgNhWC4IkdDUcCFRI3a3oBuQXUlQDzOa/L5NWYQDRY8qWMt
5QMHvQqQf8Kc9iOkRWAA44x5RHR+xcLMppQlp95Lq6HY57AEB5LwpTyaYCTszVhT
twJkqIPslxW8w4vznF5jW7nLuptPOVJmYcPHtDq+q2eaMecwl1A/leFX26iZkvyQ
d00u1RSaGg4mkregGtbuptVFUB0ITMKHLK7GpDvIAUg/JaUuw0+rgBpztrkCAwEA
AaOBlzCBlDAOBgNVHQ8BAf8EBAMCAKAwHQYDVR0lBBYwFAYIKwYBBQUHAwEGCCsG
AQUFBwMCMAwGA1UdEwEB/wQCMAAwHQYDVR0OBBYEFJfSa+eIh5bK2caZQ0gtlNos
GPjnMB8GA1UdIwQYMBaAFKl4JhnxCe9ebaz4wFGRPFLZI0haMBUGA1UdEQQOMAyC
CnJzYS1zZXJ2ZXIwCwYJKoZIhvcNAQELA4IBAQBoBYrhgY95SVOssNCbNjkyExKG
40G/EVkbdaJb/n4Gj6xXLsqG3cnHNRxoZZBOa9rIoFDwxyI6xLkqjvwDe2BimLtM
XYXSJ/3i4yYBnjE5gq2o9jaYJCaZQocB4y1N5VTwVmkSj4C0VBUVARA/32dzUi7m
UKd1SqEsr2HmM+YSbgtqfzUsCmafcOOjXuQjeNgIqRnedthiZvoTf9mlxV2FTbcV
89o1KgVdbd4q3p9ZfxwmgYkT1sXpx0IZ/G1sqBYP93hbrJUlRheGdV/pVpGMZXuj
taiIzLaQXmRtcIxcxLNvOqx3IShtviNQ2qo+Gcv9NtdLfr0kzo0O7njbsKS4
-----END CERTIFICATE-----
