Certificate:
    Data:
        Version: 3 (0x2)
        Serial Number: 4509110774095371594 (0x3e93945bd6d75d4a)
    Signature Algorithm: sha256WithRSAEncryption
        Issuer: C=US, O=CloudFlare, Inc., OU=Testing Keyless Certificate Authority, L=San Francisco, ST=California
        Validity
            Not Before: Sep  9 19:41:47 2014 GMT
            Not After : Sep  9 19:46:47 2015 GMT
        Subject: C=US, O=CloudFlare, Inc., OU=Testing Keyless Certificate Authority, L=San Francisco, ST=California
        Subject Public Key Info:
            Public Key Algorithm: rsaEncryption
                Public-Key: (2048 bit)
                Modulus:
                    00:aa:d9:c2:b1:4d:57:b5:88:5c:9c:de:af:29:f4:
                    00:3a:46:f7:39:25:56:7a:d7:20:69:c4:81:2d:ce:
                    e2:a9:29:96:0e:38:cd:7c:f5:3c:0c:1b:be:5d:29:
                    9b:b3:bc:f9:93:1d:5d:3b:8b:f9:fc:2b:b9:6d:b7:
                    ed:50:9f:e3:60:2c:8a:1d:fb:70:72:30:a8:c1:cc:
                    de:9b:c6:f0:49:fb:e4:a9:98:49:82:78:28:70:3e:
                    60:62:da:bf:a1:6b:f6:6c:af:d0:e5:a4:26:00:b3:
                    22:00:1e:71:a5:ce:aa:6f:b1:f8:18:84:c2:e4:bc:
                    5f:6e:d1:74:2e:8c:0c:64:c8:d2:56:0a:66:f5:8f:
                    a3:da:ed:22:0c:65:84:80:03:78:48:a5:f0:5e:cd:
                    2f:2e:f2:1d:e1:c9:27:47:a9:e7:68:8e:c8:0a:03:
                    64:31:c8:0e:d3:3f:d0:15:53:17:18:df:8e:f7:58:
                    30:df:67:c7:10:f2:45:da:5e:37:8d:a5:a5:d0:4c:
                    8c:9e:79:0e:5a:7e:c9:2b:07:03:01:ae:16:9c:92:
                    7e:52:a4:06:66:42:4d:9e:63:d0:d6:73:ad:48:ce:
                    67:5d:e4:a9:97:6b:ce:55:bd:0c:5d:15:cd:da:39:
                    58:be:16:df:bf:be:57:3f:50:7a:f5:b5:85:b4:97:
                    1c:cf
                Exponent: 65537 (0x10001)
        X509v3 extensions:
            X509v3 Key Usage: critical
                Certificate Sign, CRL Sign
            X509v3 Basic Constraints: critical
                CA:TRUE, pathlen:2
            X509v3 Subject Key Identifier: 
                57:E6:EC:DD:25:F3:D6:3B:EE:2F:46:DA:07:3E:69:FD:65:2C:A7:68
            X509v3 Authority Key Identifier: 
                keyid:57:E6:EC:DD:25:F3:D6:3B:EE:2F:46:DA:07:3E:69:FD:65:2C:A7:68

    Signature Algorithm: sha256WithRSAEncryption
         62:4a:9f:2d:7d:01:3c:eb:33:44:59:a7:17:36:3f:8f:30:18:
         d1:7b:68:29:bc:e7:56:1a:91:4e:2d:42:b2:66:e2:af:4b:44:
         89:70:d7:eb:60:0b:66:7d:d6:27:71:48:82:78:ea:6c:34:7c:
         e0:a0:9b:f6:7a:71:3d:7d:c0:85:2d:67:99:9c:53:71:14:62:
         26:a2:41:46:f4:24:50:3e:56:de:2d:92:a2:25:6a:4a:38:ab:
         f3:05:9c:4b:03:20:4e:fa:9b:f4:6c:d6:ab:7b:48:f3:6f:b0:
         00:ba:23:1f:e5:2f:50:3e:48:ca:31:1b:8c:21:cc:48:4a:8a:
         ba:4a:58:61:07:84:c2:41:20:26:af:11:c0:c3:8e:d9:b0:fb:
         6f:df:a9:04:68:19:97:1c:14:3b:d3:c4:01:00:77:5d:86:f3:
         88:2d:64:15:b9:28:a0:be:a5:99:82:f4:18:bb:28:5f:56:0b:
         ee:22:5f:16:62:de:cc:aa:af:dc:5d:99:36:3d:79:63:46:83:
         e1:fc:3d:a5:f1:ed:57:9e:bf:ca:f9:8f:47:17:a2:a9:b6:20:
         8b:98:be:9a:88:8f:02:74:b3:08:8e:e4:2d:4d:c8:73:c1:96:
         c5:03:92:6f:e5:50:8e:7a:6c:2a:44:4b:b4:6c:9a:d6:15:4f:
         a4:21:57:30
-----BEGIN CERTIFICATE-----
MIID8DCCAtqgAwIBAgIIPpOUW9bXXUowCwYJKoZIhvcNAQELMIGFMQswCQYDVQQG
EwJVUzEZMBcGA1UEChMQQ2xvdWRGbGFyZSwgSW5jLjEuMCwGA1UECxMlVGVzdGlu
ZyBLZXlsZXNzIENlcnRpZmljYXRlIEF1dGhvcml0eTEWMBQGA1UEBxMNU2FuIEZy
YW5jaXNjbzETMBEGA1UECBMKQ2FsaWZvcm5pYTAeFw0xNDA5MDkxOTQxNDdaFw0x
NTA5MDkxOTQ2NDdaMIGFMQswCQYDVQQGEwJVUzEZMBcGA1UEChMQQ2xvdWRGbGFy
ZSwgSW5jLjEuMCwGA1UECxMlVGVzdGluZyBLZXlsZXNzIENlcnRpZmljYXRlIEF1
dGhvcml0eTEWMBQGA1UEBxMNU2FuIEZyYW5jaXNjbzETMBEGA1UECBMKQ2FsaWZv
cm5pYTCCASIwDQYJKoZIhvcNAQEBBQADggEPADCCAQoCggEBAKrZwrFNV7WIXJze
ryn0ADpG9zklVnrXIGnEgS3O4qkplg44zXz1PAwbvl0pm7O8+ZMdXTuL+fwruW23
7VCf42Asih37cHIwqMHM3pvG8En75KmYSYJ4KHA+YGLav6Fr9myv0OWkJgCzIgAe
caXOqm+x+BiEwuS8X27RdC6MDGTI0lYKZvWPo9rtIgxlhIADeEil8F7NLy7yHeHJ
J0ep52iOyAoDZDHIDtM/0BVTFxjfjvdYMN9nxxDyRdpeN42lpdBMjJ55Dlp+ySsH
AwGuFpySflKkBmZCTZ5j0NZzrUjOZ13kqZdrzlW9DF0Vzdo5WL4W37++Vz9QevW1
hbSXHM8CAwEAAaNmMGQwDgYDVR0PAQH/BAQDAgAGMBIGA1UdEwEB/wQIMAYBAf8C
AQIwHQYDVR0OBBYEFFfm7N0l89Y77i9G2gc+af1lLKdoMB8GA1UdIwQYMBaAFFfm
7N0l89Y77i9G2gc+af1lLKdoMAsGCSqGSIb3DQEBCwOCAQEAYkqfLX0BPOszRFmn
FzY/jzAY0XtoKbznVhqRTi1Csmbir0tEiXDX62ALZn3WJ3FIgnjqbDR84KCb9npx
PX3AhS1nmZxTcRRiJqJBRvQkUD5W3i2SoiVqSjir8wWcSwMgTvqb9GzWq3tI82+w
ALojH+UvUD5IyjEbjCHMSEqKukpYYQeEwkEgJq8RwMOO2bD7b9+pBGgZlxwUO9PE
AQB3XYbziC1kFbkooL6lmYL0GLsoX1YL7iJfFmLezKqv3F2ZNj15Y0aD4fw9pfHt
V56/yvmPRxeiqbYgi5i+moiPAnSzCI7kLU3Ic8GWxQOSb+VQjnpsKkRLtGya1hVP
pCFXMA==
-----END CERTIFICATE-----
